target datalayout = "e-m:e-p270:32:32-p271:32:32-p272:64:64-i64:64-i128:128-f80:128-n8:16:32:64-S128"
target triple = "x86_64-pc-linux-gnu"

%struct._ftype_t = type { i32, i32, ptr, ptr, ptr, ptr, ptr, ptr, ptr, ptr, ptr, ptr, ptr, ptr, ptr, %union.anon, %union.anon.0, ptr, ptr, ptr, ptr, ptr, ptr, ptr, ptr, ptr, ptr, ptr, ptr, ptr, ptr, ptr }
%union.anon = type { ptr }
%union.anon.0 = type { ptr }
%struct._fvalue_t = type { ptr, %union.anon.1 }
%union.anon.1 = type { %struct._protocol_value_t }
%struct._protocol_value_t = type { ptr, i32, ptr, i8 }

; Function Attrs: null_pointer_is_valid sspstrong uwtable
define i32 @fvalue_ne(ptr noundef %0, ptr noundef %1) #0 {
  %3 = alloca i32, align 4
  %4 = alloca ptr, align 8
  %5 = alloca ptr, align 8
  %6 = alloca i32, align 4
  %7 = alloca i32, align 4
  %8 = alloca i32, align 4
  store ptr %0, ptr %4, align 8
  store ptr %1, ptr %5, align 8
  call void @llvm.lifetime.start.p0(i64 4, ptr %6) #9
  call void @llvm.lifetime.start.p0(i64 4, ptr %7) #9
  br label %9

9:                                                ; preds = %2
  br label %10

10:                                               ; preds = %9
  br label %11

11:                                               ; preds = %10
  %12 = load ptr, ptr %4, align 8
  %13 = getelementptr inbounds nuw %struct._fvalue_t, ptr %12, i32 0, i32 0
  %14 = load ptr, ptr %13, align 8
  %15 = getelementptr inbounds nuw %struct._ftype_t, ptr %14, i32 0, i32 17
  %16 = load ptr, ptr %15, align 8
  %17 = load ptr, ptr %4, align 8
  %18 = load ptr, ptr %5, align 8
  %19 = call i32 %16(ptr noundef %17, ptr noundef %18, ptr noundef %6)
  store i32 %19, ptr %7, align 4
  %20 = load i32, ptr %7, align 4
  %21 = icmp ne i32 %20, 0
  br i1 %21, label %22, label %25

22:                                               ; preds = %11
  %23 = load i32, ptr %7, align 4
  %24 = sub i32 0, %23
  store i32 %24, ptr %3, align 4
  store i32 1, ptr %8, align 4
  br label %29

25:                                               ; preds = %11
  %26 = load i32, ptr %6, align 4
  %27 = icmp ne i32 %26, 0
  %28 = select i1 %27, i32 1, i32 0
  store i32 %28, ptr %3, align 4
  store i32 1, ptr %8, align 4
  br label %29

29:                                               ; preds = %25, %22
  call void @llvm.lifetime.end.p0(i64 4, ptr %7) #9
  call void @llvm.lifetime.end.p0(i64 4, ptr %6) #9
  %30 = load i32, ptr %3, align 4
  ret i32 %30
}